; Function Attrs: nofree null_pointer_is_valid sspstrong uwtable
define internal void @disp_ip(ptr noundef %0, i32 noundef %1) #4 {
  %.sroa.2.0.extract.shift = lshr i32 %1, 8
  %.sroa.3.0.extract.shift = lshr i32 %1, 16
  %.sroa.4.0.extract.shift = lshr i32 %1, 24
  %3 = and i32 %.sroa.3.0.extract.shift, 255
  %4 = and i32 %.sroa.2.0.extract.shift, 255
  %5 = and i32 %1, 255
  %6 = tail call i32 (ptr, i64, i32, i64, ptr, ...) @__snprintf_chk(ptr noundef %0, i64 noundef 240, i32 noundef 2, i64 noundef -1, ptr noundef nonnull @.str.142, i32 noundef %.sroa.4.0.extract.shift, i32 noundef %3, i32 noundef %4, i32 noundef %5)
  ret void
}